; ModuleID = '35/2260.c'
source_filename = "35/2260.c"
target datalayout = "e-m:e-p270:32:32-p271:32:32-p272:64:64-i64:64-f80:128-n8:16:32:64-S128"
target triple = "x86_64-pc-linux-gnu"

@.str = private unnamed_addr constant [6 x i8] c"%d,%d\00", align 1
@.str.1 = private unnamed_addr constant [3 x i8] c"%d\00", align 1
@.str.2 = private unnamed_addr constant [6 x i8] c"%d+%d\00", align 1
@.str.3 = private unnamed_addr constant [3 x i8] c"No\00", align 1

; Function Attrs: noinline nounwind uwtable
define dso_local i32 @main() #0 {
  %1 = alloca i32, align 4
  %2 = alloca [9 x [9 x i32]], align 16
  %3 = alloca i32, align 4
  %4 = alloca i32, align 4
  %5 = alloca i32, align 4
  %6 = alloca i32, align 4
  %7 = alloca i32, align 4
  %8 = alloca i32, align 4
  %9 = alloca i32, align 4
  %10 = alloca i32, align 4
  %11 = alloca i32, align 4
  store i32 0, i32* %1, align 4
  %12 = bitcast [9 x [9 x i32]]* %2 to i8*
  call void @llvm.memset.p0i8.i64(i8* align 16 %12, i8 0, i64 324, i1 false)
  store i32 0, i32* %11, align 4
  %13 = call i32 (i8*, ...) @__isoc99_scanf(i8* getelementptr inbounds ([6 x i8], [6 x i8]* @.str, i64 0, i64 0), i32* %3, i32* %4)
  store i32 1, i32* %5, align 4
  br label %14

14:                                               ; preds = %35, %0
  %15 = load i32, i32* %5, align 4
  %16 = load i32, i32* %3, align 4
  %17 = icmp sle i32 %15, %16
  br i1 %17, label %18, label %38

18:                                               ; preds = %14
  store i32 1, i32* %6, align 4
  br label %19

19:                                               ; preds = %31, %18
  %20 = load i32, i32* %6, align 4
  %21 = load i32, i32* %4, align 4
  %22 = icmp sle i32 %20, %21
  br i1 %22, label %23, label %34

23:                                               ; preds = %19
  %24 = load i32, i32* %5, align 4
  %25 = sext i32 %24 to i64
  %26 = getelementptr inbounds [9 x [9 x i32]], [9 x [9 x i32]]* %2, i64 0, i64 %25
  %27 = load i32, i32* %6, align 4
  %28 = sext i32 %27 to i64
  %29 = getelementptr inbounds [9 x i32], [9 x i32]* %26, i64 0, i64 %28
  %30 = call i32 (i8*, ...) @__isoc99_scanf(i8* getelementptr inbounds ([3 x i8], [3 x i8]* @.str.1, i64 0, i64 0), i32* %29)
  br label %31

31:                                               ; preds = %23
  %32 = load i32, i32* %6, align 4
  %33 = add nsw i32 %32, 1
  store i32 %33, i32* %6, align 4
  br label %19

34:                                               ; preds = %19
  br label %35

35:                                               ; preds = %34
  %36 = load i32, i32* %5, align 4
  %37 = add nsw i32 %36, 1
  store i32 %37, i32* %5, align 4
  br label %14

38:                                               ; preds = %14
  store i32 1, i32* %5, align 4
  br label %39

39:                                               ; preds = %115, %38
  %40 = load i32, i32* %5, align 4
  %41 = load i32, i32* %3, align 4
  %42 = icmp sle i32 %40, %41
  br i1 %42, label %43, label %118

43:                                               ; preds = %39
  store i32 1, i32* %6, align 4
  br label %44

44:                                               ; preds = %111, %43
  %45 = load i32, i32* %6, align 4
  %46 = load i32, i32* %4, align 4
  %47 = icmp sle i32 %45, %46
  br i1 %47, label %48, label %114

48:                                               ; preds = %44
  store i32 1, i32* %8, align 4
  store i32 1, i32* %7, align 4
  store i32 1, i32* %10, align 4
  store i32 1, i32* %9, align 4
  br label %49

49:                                               ; preds = %69, %48
  %50 = load i32, i32* %5, align 4
  %51 = sext i32 %50 to i64
  %52 = getelementptr inbounds [9 x [9 x i32]], [9 x [9 x i32]]* %2, i64 0, i64 %51
  %53 = load i32, i32* %6, align 4
  %54 = sext i32 %53 to i64
  %55 = getelementptr inbounds [9 x i32], [9 x i32]* %52, i64 0, i64 %54
  %56 = load i32, i32* %55, align 4
  %57 = load i32, i32* %5, align 4
  %58 = sext i32 %57 to i64
  %59 = getelementptr inbounds [9 x [9 x i32]], [9 x [9 x i32]]* %2, i64 0, i64 %58
  %60 = load i32, i32* %7, align 4
  %61 = sext i32 %60 to i64
  %62 = getelementptr inbounds [9 x i32], [9 x i32]* %59, i64 0, i64 %61
  %63 = load i32, i32* %62, align 4
  %64 = icmp slt i32 %56, %63
  br i1 %64, label %65, label %66

65:                                               ; preds = %49
  store i32 0, i32* %9, align 4
  br label %73

66:                                               ; preds = %49
  %67 = load i32, i32* %7, align 4
  %68 = add nsw i32 %67, 1
  store i32 %68, i32* %7, align 4
  br label %69

69:                                               ; preds = %66
  %70 = load i32, i32* %7, align 4
  %71 = load i32, i32* %4, align 4
  %72 = icmp sle i32 %70, %71
  br i1 %72, label %49, label %73

73:                                               ; preds = %69, %65
  br label %74

74:                                               ; preds = %94, %73
  %75 = load i32, i32* %5, align 4
  %76 = sext i32 %75 to i64
  %77 = getelementptr inbounds [9 x [9 x i32]], [9 x [9 x i32]]* %2, i64 0, i64 %76
  %78 = load i32, i32* %6, align 4
  %79 = sext i32 %78 to i64
  %80 = getelementptr inbounds [9 x i32], [9 x i32]* %77, i64 0, i64 %79
  %81 = load i32, i32* %80, align 4
  %82 = load i32, i32* %8, align 4
  %83 = sext i32 %82 to i64
  %84 = getelementptr inbounds [9 x [9 x i32]], [9 x [9 x i32]]* %2, i64 0, i64 %83
  %85 = load i32, i32* %6, align 4
  %86 = sext i32 %85 to i64
  %87 = getelementptr inbounds [9 x i32], [9 x i32]* %84, i64 0, i64 %86
  %88 = load i32, i32* %87, align 4
  %89 = icmp sgt i32 %81, %88
  br i1 %89, label %90, label %91

90:                                               ; preds = %74
  store i32 0, i32* %10, align 4
  br label %98

91:                                               ; preds = %74
  %92 = load i32, i32* %8, align 4
  %93 = add nsw i32 %92, 1
  store i32 %93, i32* %8, align 4
  br label %94

94:                                               ; preds = %91
  %95 = load i32, i32* %8, align 4
  %96 = load i32, i32* %3, align 4
  %97 = icmp sle i32 %95, %96
  br i1 %97, label %74, label %98

98:                                               ; preds = %94, %90
  %99 = load i32, i32* %9, align 4
  %100 = icmp eq i32 %99, 1
  br i1 %100, label %101, label %110

101:                                              ; preds = %98
  %102 = load i32, i32* %10, align 4
  %103 = icmp eq i32 %102, 1
  br i1 %103, label %104, label %110

104:                                              ; preds = %101
  %105 = load i32, i32* %5, align 4
  %106 = sub nsw i32 %105, 1
  %107 = load i32, i32* %6, align 4
  %108 = sub nsw i32 %107, 1
  %109 = call i32 (i8*, ...) @printf(i8* getelementptr inbounds ([6 x i8], [6 x i8]* @.str.2, i64 0, i64 0), i32 %106, i32 %108)
  store i32 1, i32* %11, align 4
  store i32 0, i32* %1, align 4
  br label %124

110:                                              ; preds = %101, %98
  br label %111

111:                                              ; preds = %110
  %112 = load i32, i32* %6, align 4
  %113 = add nsw i32 %112, 1
  store i32 %113, i32* %6, align 4
  br label %44

114:                                              ; preds = %44
  br label %115

115:                                              ; preds = %114
  %116 = load i32, i32* %5, align 4
  %117 = add nsw i32 %116, 1
  store i32 %117, i32* %5, align 4
  br label %39

118:                                              ; preds = %39
  %119 = load i32, i32* %11, align 4
  %120 = icmp eq i32 %119, 0
  br i1 %120, label %121, label %123

121:                                              ; preds = %118
  %122 = call i32 (i8*, ...) @printf(i8* getelementptr inbounds ([3 x i8], [3 x i8]* @.str.3, i64 0, i64 0))
  br label %123

123:                                              ; preds = %121, %118
  store i32 0, i32* %1, align 4
  br label %124

124:                                              ; preds = %123, %104
  %125 = load i32, i32* %1, align 4
  ret i32 %125
}

; Function Attrs: argmemonly nounwind willreturn
declare void @llvm.memset.p0i8.i64(i8* nocapture writeonly, i8, i64, i1 immarg) #1

declare dso_local i32 @__isoc99_scanf(i8*, ...) #2

declare dso_local i32 @printf(i8*, ...) #2


!llvm.module.flags = !{!0}
!llvm.ident = !{!1}

!0 = !{i32 1, !"wchar_size", i32 4}
!1 = !{!"clang version 10.0.0-4ubuntu1 "}
